target datalayout = "e-m:e-p270:32:32-p271:32:32-p272:64:64-i64:64-i128:128-f80:128-n8:16:32:64-S128"
target triple = "x86_64-pc-linux-gnu"

%"struct.cv::Ptr" = type { %"class.std::shared_ptr" }
%"class.std::shared_ptr" = type { %"class.std::__shared_ptr" }
%"class.std::__shared_ptr" = type { ptr, %"class.std::__shared_count" }
%"class.std::__shared_count" = type { ptr }
%"class.__gnu_cxx::__normal_iterator" = type { ptr }
%"struct.std::_Vector_base" = type { %"struct.std::_Vector_base<std::vector<std::pair<cv::Ptr<cv::detail::tracking::TrackerTargetState>, float>>, std::allocator<std::vector<std::pair<cv::Ptr<cv::detail::tracking::TrackerTargetState>, float>>>>::_Vector_impl" }
%"struct.std::_Vector_base<std::vector<std::pair<cv::Ptr<cv::detail::tracking::TrackerTargetState>, float>>, std::allocator<std::vector<std::pair<cv::Ptr<cv::detail::tracking::TrackerTargetState>, float>>>>::_Vector_impl" = type { %"struct.std::_Vector_base<std::vector<std::pair<cv::Ptr<cv::detail::tracking::TrackerTargetState>, float>>, std::allocator<std::vector<std::pair<cv::Ptr<cv::detail::tracking::TrackerTargetState>, float>>>>::_Vector_impl_data" }
%"struct.std::_Vector_base<std::vector<std::pair<cv::Ptr<cv::detail::tracking::TrackerTargetState>, float>>, std::allocator<std::vector<std::pair<cv::Ptr<cv::detail::tracking::TrackerTargetState>, float>>>>::_Vector_impl_data" = type { ptr, ptr, ptr }

; Function Attrs: mustprogress nounwind uwtable
define linkonce_odr hidden void @_ZNSt14__shared_countILN9__gnu_cxx12_Lock_policyE2EEC2Ev(ptr noundef nonnull align 8 dereferenceable(8) %0) unnamed_addr #0 comdat align 2 {
  %2 = alloca ptr, align 8
  store ptr %0, ptr %2, align 8, !tbaa !56
  %3 = load ptr, ptr %2, align 8
  %4 = getelementptr inbounds nuw %"class.std::__shared_count", ptr %3, i32 0, i32 0
  store ptr null, ptr %4, align 8, !tbaa !58
  ret void
}

; Function Attrs: mustprogress nounwind uwtable
define linkonce_odr hidden void @_ZNSt12__shared_ptrIN2cv6detail8tracking18TrackerTargetStateELN9__gnu_cxx12_Lock_policyE2EEC2Ev(ptr noundef nonnull align 8 dereferenceable(16) %0) unnamed_addr #0 comdat align 2 {
  %2 = alloca ptr, align 8
  store ptr %0, ptr %2, align 8, !tbaa !49
  %3 = load ptr, ptr %2, align 8
  %4 = getelementptr inbounds nuw %"class.std::__shared_ptr", ptr %3, i32 0, i32 0
  store ptr null, ptr %4, align 8, !tbaa !51
  %5 = getelementptr inbounds nuw %"class.std::__shared_ptr", ptr %3, i32 0, i32 1
  call void @_ZNSt14__shared_countILN9__gnu_cxx12_Lock_policyE2EEC2Ev(ptr noundef nonnull align 8 dereferenceable(8) %5) #11
  ret void
}

; Function Attrs: mustprogress nounwind uwtable
define linkonce_odr hidden noundef nonnull align 8 dereferenceable(8) ptr @_ZNK9__gnu_cxx17__normal_iteratorIPKSt6vectorISt4pairIN2cv3PtrINS3_6detail8tracking18TrackerTargetStateEEEfESaIS9_EES1_ISB_SaISB_EEE4baseEv(ptr noundef nonnull align 8 dereferenceable(8) %0) #0 comdat align 2 {
  %2 = alloca ptr, align 8
  store ptr %0, ptr %2, align 8, !tbaa !39
  %3 = load ptr, ptr %2, align 8
  %4 = getelementptr inbounds nuw %"class.__gnu_cxx::__normal_iterator", ptr %3, i32 0, i32 0
  ret ptr %4
}

; Function Attrs: mustprogress nounwind uwtable
define linkonce_odr hidden void @_ZN9__gnu_cxx17__normal_iteratorIPKSt6vectorISt4pairIN2cv3PtrINS3_6detail8tracking18TrackerTargetStateEEEfESaIS9_EES1_ISB_SaISB_EEEC2ERKSD_(ptr noundef nonnull align 8 dereferenceable(8) %0, ptr noundef nonnull align 8 dereferenceable(8) %1) unnamed_addr #0 comdat align 2 {
  %3 = alloca ptr, align 8
  %4 = alloca ptr, align 8
  store ptr %0, ptr %3, align 8, !tbaa !39
  store ptr %1, ptr %4, align 8, !tbaa !43
  %5 = load ptr, ptr %3, align 8
  %6 = getelementptr inbounds nuw %"class.__gnu_cxx::__normal_iterator", ptr %5, i32 0, i32 0
  %7 = load ptr, ptr %4, align 8, !tbaa !43
  %8 = load ptr, ptr %7, align 8, !tbaa !41
  store ptr %8, ptr %6, align 8, !tbaa !45
  ret void
}

; Function Attrs: mustprogress nounwind uwtable
define linkonce_odr hidden void @_ZNSt10shared_ptrIN2cv6detail8tracking18TrackerTargetStateEEC2Ev(ptr noundef nonnull align 8 dereferenceable(16) %0) unnamed_addr #0 comdat align 2 {
  %2 = alloca ptr, align 8
  store ptr %0, ptr %2, align 8, !tbaa !47
  %3 = load ptr, ptr %2, align 8
  call void @_ZNSt12__shared_ptrIN2cv6detail8tracking18TrackerTargetStateELN9__gnu_cxx12_Lock_policyE2EEC2Ev(ptr noundef nonnull align 8 dereferenceable(16) %3) #11
  ret void
}

; Function Attrs: inlinehint mustprogress nounwind uwtable
define linkonce_odr hidden noundef zeroext i1 @_ZN9__gnu_cxxeqIPKSt6vectorISt4pairIN2cv3PtrINS3_6detail8tracking18TrackerTargetStateEEEfESaIS9_EES1_ISB_SaISB_EEEEbRKNS_17__normal_iteratorIT_T0_EESL_(ptr noundef nonnull align 8 dereferenceable(8) %0, ptr noundef nonnull align 8 dereferenceable(8) %1) #3 comdat {
  %3 = alloca ptr, align 8
  %4 = alloca ptr, align 8
  store ptr %0, ptr %3, align 8, !tbaa !39
  store ptr %1, ptr %4, align 8, !tbaa !39
  %5 = load ptr, ptr %3, align 8, !tbaa !39
  %6 = call noundef nonnull align 8 dereferenceable(8) ptr @_ZNK9__gnu_cxx17__normal_iteratorIPKSt6vectorISt4pairIN2cv3PtrINS3_6detail8tracking18TrackerTargetStateEEEfESaIS9_EES1_ISB_SaISB_EEE4baseEv(ptr noundef nonnull align 8 dereferenceable(8) %5) #11
  %7 = load ptr, ptr %6, align 8, !tbaa !41
  %8 = load ptr, ptr %4, align 8, !tbaa !39
  %9 = call noundef nonnull align 8 dereferenceable(8) ptr @_ZNK9__gnu_cxx17__normal_iteratorIPKSt6vectorISt4pairIN2cv3PtrINS3_6detail8tracking18TrackerTargetStateEEEfESaIS9_EES1_ISB_SaISB_EEE4baseEv(ptr noundef nonnull align 8 dereferenceable(8) %8) #11
  %10 = load ptr, ptr %9, align 8, !tbaa !41
  %11 = icmp eq ptr %7, %10
  ret i1 %11
}

; Function Attrs: mustprogress nounwind uwtable
define linkonce_odr hidden ptr @_ZNKSt6vectorIS_ISt4pairIN2cv3PtrINS1_6detail8tracking18TrackerTargetStateEEEfESaIS7_EESaIS9_EE3endEv(ptr noundef nonnull align 8 dereferenceable(24) %0) #0 comdat align 2 {
  %2 = alloca %"class.__gnu_cxx::__normal_iterator", align 8
  %3 = alloca ptr, align 8
  store ptr %0, ptr %3, align 8, !tbaa !12
  %4 = load ptr, ptr %3, align 8
  %5 = getelementptr inbounds nuw %"struct.std::_Vector_base", ptr %4, i32 0, i32 0
  %6 = getelementptr inbounds nuw %"struct.std::_Vector_base<std::vector<std::pair<cv::Ptr<cv::detail::tracking::TrackerTargetState>, float>>, std::allocator<std::vector<std::pair<cv::Ptr<cv::detail::tracking::TrackerTargetState>, float>>>>::_Vector_impl_data", ptr %5, i32 0, i32 1
  call void @_ZN9__gnu_cxx17__normal_iteratorIPKSt6vectorISt4pairIN2cv3PtrINS3_6detail8tracking18TrackerTargetStateEEEfESaIS9_EES1_ISB_SaISB_EEEC2ERKSD_(ptr noundef nonnull align 8 dereferenceable(8) %2, ptr noundef nonnull align 8 dereferenceable(8) %6) #11
  %7 = getelementptr inbounds nuw %"class.__gnu_cxx::__normal_iterator", ptr %2, i32 0, i32 0
  %8 = load ptr, ptr %7, align 8
  ret ptr %8
}

; Function Attrs: mustprogress nounwind uwtable
define linkonce_odr hidden ptr @_ZNKSt6vectorIS_ISt4pairIN2cv3PtrINS1_6detail8tracking18TrackerTargetStateEEEfESaIS7_EESaIS9_EE5beginEv(ptr noundef nonnull align 8 dereferenceable(24) %0) #0 comdat align 2 {
  %2 = alloca %"class.__gnu_cxx::__normal_iterator", align 8
  %3 = alloca ptr, align 8
  store ptr %0, ptr %3, align 8, !tbaa !12
  %4 = load ptr, ptr %3, align 8
  %5 = getelementptr inbounds nuw %"struct.std::_Vector_base", ptr %4, i32 0, i32 0
  %6 = getelementptr inbounds nuw %"struct.std::_Vector_base<std::vector<std::pair<cv::Ptr<cv::detail::tracking::TrackerTargetState>, float>>, std::allocator<std::vector<std::pair<cv::Ptr<cv::detail::tracking::TrackerTargetState>, float>>>>::_Vector_impl_data", ptr %5, i32 0, i32 0
  call void @_ZN9__gnu_cxx17__normal_iteratorIPKSt6vectorISt4pairIN2cv3PtrINS3_6detail8tracking18TrackerTargetStateEEEfESaIS9_EES1_ISB_SaISB_EEEC2ERKSD_(ptr noundef nonnull align 8 dereferenceable(8) %2, ptr noundef nonnull align 8 dereferenceable(8) %6) #11
  %7 = getelementptr inbounds nuw %"class.__gnu_cxx::__normal_iterator", ptr %2, i32 0, i32 0
  %8 = load ptr, ptr %7, align 8
  ret ptr %8
}

; Function Attrs: inlinehint mustprogress nounwind uwtable
define linkonce_odr hidden void @_ZN2cv3PtrINS_6detail8tracking18TrackerTargetStateEEC2Ev(ptr noundef nonnull align 8 dereferenceable(16) %0) unnamed_addr #3 comdat align 2 {
  %2 = alloca ptr, align 8
  store ptr %0, ptr %2, align 8, !tbaa !14
  %3 = load ptr, ptr %2, align 8
  call void @_ZNSt10shared_ptrIN2cv6detail8tracking18TrackerTargetStateEEC2Ev(ptr noundef nonnull align 8 dereferenceable(16) %3) #11
  ret void
}

; Function Attrs: mustprogress nounwind uwtable
define linkonce_odr hidden noundef zeroext i1 @_ZNKSt6vectorIS_ISt4pairIN2cv3PtrINS1_6detail8tracking18TrackerTargetStateEEEfESaIS7_EESaIS9_EE5emptyEv(ptr noundef nonnull align 8 dereferenceable(24) %0) #0 comdat align 2 {
  %2 = alloca ptr, align 8
  %3 = alloca %"class.__gnu_cxx::__normal_iterator", align 8
  %4 = alloca %"class.__gnu_cxx::__normal_iterator", align 8
  store ptr %0, ptr %2, align 8, !tbaa !12
  %5 = load ptr, ptr %2, align 8
  call void @llvm.lifetime.start.p0(i64 8, ptr %3) #11
  %6 = call ptr @_ZNKSt6vectorIS_ISt4pairIN2cv3PtrINS1_6detail8tracking18TrackerTargetStateEEEfESaIS7_EESaIS9_EE5beginEv(ptr noundef nonnull align 8 dereferenceable(24) %5) #11
  %7 = getelementptr inbounds nuw %"class.__gnu_cxx::__normal_iterator", ptr %3, i32 0, i32 0
  store ptr %6, ptr %7, align 8
  call void @llvm.lifetime.start.p0(i64 8, ptr %4) #11
  %8 = call ptr @_ZNKSt6vectorIS_ISt4pairIN2cv3PtrINS1_6detail8tracking18TrackerTargetStateEEEfESaIS7_EESaIS9_EE3endEv(ptr noundef nonnull align 8 dereferenceable(24) %5) #11
  %9 = getelementptr inbounds nuw %"class.__gnu_cxx::__normal_iterator", ptr %4, i32 0, i32 0
  store ptr %8, ptr %9, align 8
  %10 = call noundef zeroext i1 @_ZN9__gnu_cxxeqIPKSt6vectorISt4pairIN2cv3PtrINS3_6detail8tracking18TrackerTargetStateEEEfESaIS9_EES1_ISB_SaISB_EEEEbRKNS_17__normal_iteratorIT_T0_EESL_(ptr noundef nonnull align 8 dereferenceable(8) %3, ptr noundef nonnull align 8 dereferenceable(8) %4) #11
  call void @llvm.lifetime.end.p0(i64 8, ptr %4) #11
  call void @llvm.lifetime.end.p0(i64 8, ptr %3) #11
  ret i1 %10
}

; Function Attrs: mustprogress uwtable
define void @_ZN2cv6detail8tracking21TrackerStateEstimator8estimateERKSt6vectorIS3_ISt4pairINS_3PtrINS1_18TrackerTargetStateEEEfESaIS8_EESaISA_EE(ptr dead_on_unwind noalias writable sret(%"struct.cv::Ptr") align 8 %0, ptr noundef nonnull align 8 dereferenceable(40) %1, ptr noundef nonnull align 8 dereferenceable(24) %2) #2 align 2 {
  %4 = alloca ptr, align 8
  %5 = alloca ptr, align 8
  %6 = alloca ptr, align 8
  store ptr %0, ptr %4, align 8
  store ptr %1, ptr %5, align 8, !tbaa !3
  store ptr %2, ptr %6, align 8, !tbaa !12
  %7 = load ptr, ptr %5, align 8
  %8 = load ptr, ptr %6, align 8, !tbaa !12
  %9 = call noundef zeroext i1 @_ZNKSt6vectorIS_ISt4pairIN2cv3PtrINS1_6detail8tracking18TrackerTargetStateEEEfESaIS7_EESaIS9_EE5emptyEv(ptr noundef nonnull align 8 dereferenceable(24) %8) #11
  br i1 %9, label %10, label %11

10:                                               ; preds = %3
  call void @_ZN2cv3PtrINS_6detail8tracking18TrackerTargetStateEEC2Ev(ptr noundef nonnull align 8 dereferenceable(16) %0) #11
  br label %16

11:                                               ; preds = %3
  %12 = load ptr, ptr %6, align 8, !tbaa !12
  %13 = load ptr, ptr %7, align 8, !tbaa !8
  %14 = getelementptr inbounds ptr, ptr %13, i64 2
  %15 = load ptr, ptr %14, align 8
  call void %15(ptr dead_on_unwind writable sret(%"struct.cv::Ptr") align 8 %0, ptr noundef nonnull align 8 dereferenceable(40) %7, ptr noundef nonnull align 8 dereferenceable(24) %12)
  br label %16

16:                                               ; preds = %11, %10
  ret void
}